; Function Attrs: nounwind uwtable
define internal void @_autocomplete(ptr noundef %0) #0 {
  %2 = alloca ptr, align 8
  call void @llvm.lifetime.start.p0(i64 8, ptr nonnull %2) #17
  store ptr null, ptr %2, align 8
  %3 = call ptr @slurm_option_table_create(ptr noundef nonnull @opt, ptr noundef nonnull %2) #17
  call void @suggest_completion(ptr noundef %3, ptr noundef %0) #17
  call void @slurm_xfree(ptr noundef nonnull %2) #17
  call void @slurm_option_table_destroy(ptr noundef %3) #17
  call void @llvm.lifetime.end.p0(i64 8, ptr nonnull %2) #17
  ret void
}